target datalayout = "e-m:e-p270:32:32-p271:32:32-p272:64:64-i64:64-i128:128-f80:128-n8:16:32:64-S128"
target triple = "x86_64-pc-linux-gnu"

%class.NumberSeq = type { %class.AbsSeq, double, double }
%class.AbsSeq = type { ptr, i32, double, double, double, double, double }
%class.G1CMTask = type { %class.TerminatorTerminator, %class.G1CMObjArrayProcessor, i32, ptr, ptr, ptr, ptr, %class.G1RegionMarkStatsCache, i32, double, double, ptr, ptr, ptr, ptr, i64, i64, i64, i64, i64, i64, i8, i8, i8, %class.NumberSeq, double, double, %class.TruncatedSeq }
%class.TerminatorTerminator = type { ptr }
%class.G1CMObjArrayProcessor = type { ptr }
%class.G1RegionMarkStatsCache = type { ptr, ptr, i32, i64, i64, i64 }
%class.TruncatedSeq = type { %class.AbsSeq, ptr, i32, i32 }

; Function Attrs: mustprogress nounwind uwtable
define hidden void @_ZN8G1CMTask15decrease_limitsEv(ptr noundef nonnull align 8 dereferenceable(376) %0) #1 align 2 {
  %2 = alloca ptr, align 8
  store ptr %0, ptr %2, align 8
  %3 = load ptr, ptr %2, align 8
  %4 = getelementptr inbounds %class.G1CMTask, ptr %3, i32 0, i32 17
  %5 = load i64, ptr %4, align 8
  %6 = sub i64 %5, 9216
  %7 = getelementptr inbounds %class.G1CMTask, ptr %3, i32 0, i32 16
  store i64 %6, ptr %7, align 8
  %8 = getelementptr inbounds %class.G1CMTask, ptr %3, i32 0, i32 20
  %9 = load i64, ptr %8, align 8
  %10 = sub i64 %9, 768
  %11 = getelementptr inbounds %class.G1CMTask, ptr %3, i32 0, i32 19
  store i64 %10, ptr %11, align 8
  ret void
}