; Function Attrs: mustprogress nofree norecurse nosync nounwind willreturn memory(argmem: readwrite) uwtable
define hidden void @_ZN8G1CMTask15decrease_limitsEv(ptr nocapture noundef nonnull align 8 dereferenceable(376) %0) local_unnamed_addr #13 align 2 {
  %2 = getelementptr inbounds i8, ptr %0, i64 176
  %3 = load i64, ptr %2, align 8
  %4 = add i64 %3, -9216
  %5 = getelementptr inbounds i8, ptr %0, i64 168
  store i64 %4, ptr %5, align 8
  %6 = getelementptr inbounds i8, ptr %0, i64 200
  %7 = load i64, ptr %6, align 8
  %8 = add i64 %7, -768
  %9 = getelementptr inbounds i8, ptr %0, i64 192
  store i64 %8, ptr %9, align 8
  ret void
}